	.file	"main.c"
	.text
	.globl	reverse
	.type	reverse, @function
reverse:
.LFB0:
	.cfi_startproc
	pushq	%rbp
	.cfi_def_cfa_offset 16
	.cfi_offset 6, -16
	movq	%rsp, %rbp
	.cfi_def_cfa_register 6
	subq	$32, %rsp
	movq	%rdi, -24(%rbp)
	movq	-24(%rbp), %rax
	movl	(%rax), %eax
	movslq	%eax, %rdx
	imulq	$1717986919, %rdx, %rdx
	shrq	$32, %rdx
	movl	%edx, %ecx
	sarl	$2, %ecx
	cltd
	movl	%ecx, %eax
	subl	%edx, %eax
	movl	%eax, -12(%rbp)
	movl	$0, -8(%rbp)
	jmp	.L2
.L3:
	movl	-12(%rbp), %eax
	movslq	%eax, %rdx
	imulq	$1717986919, %rdx, %rdx
	shrq	$32, %rdx
	movl	%edx, %ecx
	sarl	$2, %ecx
	cltd
	movl	%ecx, %eax
	subl	%edx, %eax
	movl	%eax, -12(%rbp)
	addl	$1, -8(%rbp)
.L2:
	cmpl	$0, -12(%rbp)
	jg	.L3
	movq	-24(%rbp), %rax
	movl	(%rax), %eax
	movl	%eax, -12(%rbp)
	movq	-24(%rbp), %rax
	movl	$0, (%rax)
	movl	-8(%rbp), %eax
	movl	%eax, -4(%rbp)
	jmp	.L4
.L5:
	movl	-12(%rbp), %edx
	movslq	%edx, %rax
	imulq	$1717986919, %rax, %rax
	shrq	$32, %rax
	movl	%eax, %ecx
	sarl	$2, %ecx
	movl	%edx, %eax
	sarl	$31, %eax
	subl	%eax, %ecx
	movl	%ecx, %eax
	sall	$2, %eax
	addl	%ecx, %eax
	addl	%eax, %eax
	movl	%edx, %ecx
	subl	%eax, %ecx
	pxor	%xmm2, %xmm2
	cvtsi2sdl	%ecx, %xmm2
	movsd	%xmm2, -32(%rbp)
	pxor	%xmm0, %xmm0
	cvtsi2sdl	-4(%rbp), %xmm0
	movq	.LC0(%rip), %rax
	movapd	%xmm0, %xmm1
	movq	%rax, %xmm0
	call	pow@PLT
	movsd	-32(%rbp), %xmm1
	mulsd	%xmm0, %xmm1
	movq	-24(%rbp), %rax
	movl	(%rax), %eax
	pxor	%xmm0, %xmm0
	cvtsi2sdl	%eax, %xmm0
	addsd	%xmm1, %xmm0
	cvttsd2sil	%xmm0, %edx
	movq	-24(%rbp), %rax
	movl	%edx, (%rax)
	movl	-12(%rbp), %eax
	movslq	%eax, %rdx
	imulq	$1717986919, %rdx, %rdx
	shrq	$32, %rdx
	movl	%edx, %ecx
	sarl	$2, %ecx
	cltd
	movl	%ecx, %eax
	subl	%edx, %eax
	movl	%eax, -12(%rbp)
	subl	$1, -4(%rbp)
.L4:
	cmpl	$0, -12(%rbp)
	jg	.L5
	nop
	nop
	leave
	.cfi_def_cfa 7, 8
	ret
	.cfi_endproc
.LFE0:
	.size	reverse, .-reverse
	.section	.rodata
.LC1:
	.string	"%d\n"
	.text
	.globl	main
	.type	main, @function
main:
.LFB1:
	.cfi_startproc
	pushq	%rbp
	.cfi_def_cfa_offset 16
	.cfi_offset 6, -16
	movq	%rsp, %rbp
	.cfi_def_cfa_register 6
	subq	$16, %rsp
	movq	%fs:40, %rax
	movq	%rax, -8(%rbp)
	xorl	%eax, %eax
	movl	$1234, -12(%rbp)
	leaq	-12(%rbp), %rax
	movq	%rax, %rdi
	call	reverse
	movl	-12(%rbp), %eax
	leaq	.LC1(%rip), %rdx
	movl	%eax, %esi
	movq	%rdx, %rdi
	movl	$0, %eax
	call	printf@PLT
	movl	$0, %eax
	movq	-8(%rbp), %rdx
	subq	%fs:40, %rdx
	je	.L8
	call	__stack_chk_fail@PLT
.L8:
	leave
	.cfi_def_cfa 7, 8
	ret
	.cfi_endproc
.LFE1:
	.size	main, .-main
	.section	.rodata
	.align 8
.LC0:
	.long	0
	.long	1076101120
	.ident	"GCC: (GNU) 15.2.1 20250813"
	.section	.note.GNU-stack,"",@progbits
